; Function Attrs: mustprogress uwtable
define void @_ZN4lean18reset_thread_localEv() local_unnamed_addr #0 {
  %1 = load ptr, ptr @_ZN4leanL24g_thread_local_reset_fnsE, align 8, !tbaa !3
  %2 = load ptr, ptr %1, align 8, !tbaa !16
  %3 = getelementptr inbounds nuw i8, ptr %1, i64 8
  %4 = load ptr, ptr %3, align 8, !tbaa !16
  %.not6 = icmp eq ptr %2, %4
  br i1 %.not6, label %._crit_edge, label %.lr.ph

._crit_edge:                                      ; preds = %_ZNKSt8functionIFvvEEclEv.exit, %0
  ret void

.lr.ph:                                           ; preds = %0, %_ZNKSt8functionIFvvEEclEv.exit
  %.sroa.03.07 = phi ptr [ %10, %_ZNKSt8functionIFvvEEclEv.exit ], [ %2, %0 ]
  %5 = getelementptr inbounds nuw i8, ptr %.sroa.03.07, i64 16
  %6 = load ptr, ptr %5, align 8, !tbaa !12
  %.not.i.i = icmp eq ptr %6, null
  br i1 %.not.i.i, label %7, label %_ZNKSt8functionIFvvEEclEv.exit

7:                                                ; preds = %.lr.ph
  tail call void @_ZSt25__throw_bad_function_callv() #22
  unreachable

_ZNKSt8functionIFvvEEclEv.exit:                   ; preds = %.lr.ph
  %8 = getelementptr inbounds nuw i8, ptr %.sroa.03.07, i64 24
  %9 = load ptr, ptr %8, align 8, !tbaa !14
  tail call void %9(ptr noundef nonnull align 8 dereferenceable(32) %.sroa.03.07)
  %10 = getelementptr inbounds nuw i8, ptr %.sroa.03.07, i64 32
  %.not = icmp eq ptr %10, %4
  br i1 %.not, label %._crit_edge, label %.lr.ph
}